; Function Attrs: nounwind uwtable
define internal noundef i32 @module_traverse(ptr noundef %0, ptr noundef readonly captures(none) %1, ptr noundef %2) #0 {
  %.not.i = icmp eq ptr %0, null
  br i1 %.not.i, label %4, label %5

4:                                                ; preds = %3
  tail call void @__assert_fail(ptr noundef nonnull @.str.151, ptr noundef nonnull @.str.80, i32 noundef 71, ptr noundef nonnull @__PRETTY_FUNCTION__.get_module_state) #12
  unreachable

5:                                                ; preds = %3
  %6 = tail call ptr @PyModule_GetState(ptr noundef nonnull %0) #11
  %.not5.i = icmp eq ptr %6, null
  br i1 %.not5.i, label %7, label %get_module_state.exit

7:                                                ; preds = %5
  tail call void @__assert_fail(ptr noundef nonnull @.str.152, ptr noundef nonnull @.str.80, i32 noundef 73, ptr noundef nonnull @__PRETTY_FUNCTION__.get_module_state) #12
  unreachable

get_module_state.exit:                            ; preds = %5
  %.val = load ptr, ptr %6, align 8, !tbaa !3
  %.not.i5 = icmp eq ptr %.val, null
  br i1 %.not.i5, label %traverse_module_state.exit, label %8

8:                                                ; preds = %get_module_state.exit
  %9 = tail call i32 %1(ptr noundef nonnull %.val, ptr noundef %2) #11
  br label %traverse_module_state.exit

traverse_module_state.exit:                       ; preds = %8, %get_module_state.exit
  ret i32 0
}